target datalayout = "e-m:e-p270:32:32-p271:32:32-p272:64:64-i64:64-i128:128-f80:128-n8:16:32:64-S128"
target triple = "x86_64-pc-linux-gnu"

%struct.quic_lcidm_st = type { ptr, ptr, ptr, i64 }
%struct.quic_lcid_st = type { %struct.quic_conn_id_st, i64, ptr, i8 }
%struct.quic_conn_id_st = type { i8, [20 x i8] }
%struct.quic_lcidm_conn_st = type { i64, ptr, ptr, ptr, i64, i8 }

; Function Attrs: inlinehint nounwind uwtable
define internal ptr @lh_QUIC_LCID_retrieve(ptr noundef %0, ptr noundef %1) #3 {
  %3 = alloca ptr, align 8
  %4 = alloca ptr, align 8
  store ptr %0, ptr %3, align 8, !tbaa !30
  store ptr %1, ptr %4, align 8, !tbaa !20
  %5 = load ptr, ptr %3, align 8, !tbaa !30
  %6 = load ptr, ptr %4, align 8, !tbaa !20
  %7 = call ptr @OPENSSL_LH_retrieve(ptr noundef %5, ptr noundef %6)
  ret ptr %7
}

; Function Attrs: nounwind uwtable
define internal i32 @lcidm_generate_cid(ptr noundef %0, ptr noundef %1) #0 {
  %3 = alloca ptr, align 8
  %4 = alloca ptr, align 8
  store ptr %0, ptr %3, align 8, !tbaa !10
  store ptr %1, ptr %4, align 8, !tbaa !33
  %5 = load ptr, ptr %3, align 8, !tbaa !10
  %6 = getelementptr inbounds nuw %struct.quic_lcidm_st, ptr %5, i32 0, i32 0
  %7 = load ptr, ptr %6, align 8, !tbaa !17
  %8 = load ptr, ptr %3, align 8, !tbaa !10
  %9 = getelementptr inbounds nuw %struct.quic_lcidm_st, ptr %8, i32 0, i32 3
  %10 = load i64, ptr %9, align 8, !tbaa !18
  %11 = load ptr, ptr %4, align 8, !tbaa !33
  %12 = call i32 @ossl_quic_gen_rand_conn_id(ptr noundef %7, i64 noundef %10, ptr noundef %11)
  ret i32 %12
}

; Function Attrs: nounwind uwtable
define internal i32 @lcidm_generate(ptr noundef %0, ptr noundef %1, i32 noundef %2, ptr noundef %3, ptr noundef %4) #0 {
  %6 = alloca i32, align 4
  %7 = alloca ptr, align 8
  %8 = alloca ptr, align 8
  %9 = alloca i32, align 4
  %10 = alloca ptr, align 8
  %11 = alloca ptr, align 8
  %12 = alloca ptr, align 8
  %13 = alloca %struct.quic_lcid_st, align 8
  %14 = alloca ptr, align 8
  %15 = alloca i64, align 8
  %16 = alloca i32, align 4
  store ptr %0, ptr %7, align 8, !tbaa !10
  store ptr %1, ptr %8, align 8, !tbaa !19
  store i32 %2, ptr %9, align 4, !tbaa !42
  store ptr %3, ptr %10, align 8, !tbaa !33
  store ptr %4, ptr %11, align 8, !tbaa !43
  call void @llvm.lifetime.start.p0(i64 8, ptr %12) #7
  call void @llvm.lifetime.start.p0(i64 48, ptr %13) #7
  call void @llvm.lifetime.start.p0(i64 8, ptr %14) #7
  call void @llvm.lifetime.start.p0(i64 8, ptr %15) #7
  %17 = load ptr, ptr %7, align 8, !tbaa !10
  %18 = load ptr, ptr %8, align 8, !tbaa !19
  %19 = call ptr @lcidm_upsert_conn(ptr noundef %17, ptr noundef %18)
  store ptr %19, ptr %12, align 8, !tbaa !27
  %20 = icmp eq ptr %19, null
  br i1 %20, label %21, label %22

21:                                               ; preds = %5
  store i32 0, ptr %6, align 4
  store i32 1, ptr %16, align 4
  br label %90

22:                                               ; preds = %5
  %23 = load i32, ptr %9, align 4, !tbaa !42
  %24 = icmp eq i32 %23, 1
  br i1 %24, label %25, label %30

25:                                               ; preds = %22
  %26 = load ptr, ptr %12, align 8, !tbaa !27
  %27 = getelementptr inbounds nuw %struct.quic_lcidm_conn_st, ptr %26, i32 0, i32 4
  %28 = load i64, ptr %27, align 8, !tbaa !45
  %29 = icmp ugt i64 %28, 0
  br i1 %29, label %35, label %30

30:                                               ; preds = %25, %22
  %31 = load ptr, ptr %12, align 8, !tbaa !27
  %32 = getelementptr inbounds nuw %struct.quic_lcidm_conn_st, ptr %31, i32 0, i32 4
  %33 = load i64, ptr %32, align 8, !tbaa !45
  %34 = icmp ugt i64 %33, 4611686018427387903
  br i1 %34, label %35, label %36

35:                                               ; preds = %30, %25
  store i32 0, ptr %6, align 4
  store i32 1, ptr %16, align 4
  br label %90

36:                                               ; preds = %30
  store i64 0, ptr %15, align 8, !tbaa !8
  br label %37

37:                                               ; preds = %51, %36
  %38 = load i64, ptr %15, align 8, !tbaa !8
  %39 = add i64 %38, 1
  store i64 %39, ptr %15, align 8, !tbaa !8
  %40 = icmp uge i64 %38, 8
  br i1 %40, label %41, label %42

41:                                               ; preds = %37
  store i32 0, ptr %6, align 4
  store i32 1, ptr %16, align 4
  br label %90

42:                                               ; preds = %37
  %43 = load ptr, ptr %7, align 8, !tbaa !10
  %44 = load ptr, ptr %10, align 8, !tbaa !33
  %45 = call i32 @lcidm_generate_cid(ptr noundef %43, ptr noundef %44)
  %46 = icmp ne i32 %45, 0
  br i1 %46, label %48, label %47

47:                                               ; preds = %42
  store i32 0, ptr %6, align 4
  store i32 1, ptr %16, align 4
  br label %90

48:                                               ; preds = %42
  %49 = getelementptr inbounds nuw %struct.quic_lcid_st, ptr %13, i32 0, i32 0
  %50 = load ptr, ptr %10, align 8, !tbaa !33
  call void @llvm.memcpy.p0.p0.i64(ptr align 8 %49, ptr align 1 %50, i64 21, i1 false), !tbaa.struct !36
  br label %51

51:                                               ; preds = %48
  %52 = load ptr, ptr %7, align 8, !tbaa !10
  %53 = getelementptr inbounds nuw %struct.quic_lcidm_st, ptr %52, i32 0, i32 1
  %54 = load ptr, ptr %53, align 8, !tbaa !12
  %55 = call ptr @lh_QUIC_LCID_retrieve(ptr noundef %54, ptr noundef %13)
  %56 = icmp ne ptr %55, null
  br i1 %56, label %37, label %57, !llvm.loop !46

57:                                               ; preds = %51
  %58 = load ptr, ptr %7, align 8, !tbaa !10
  %59 = load ptr, ptr %12, align 8, !tbaa !27
  %60 = load ptr, ptr %10, align 8, !tbaa !33
  %61 = call ptr @lcidm_conn_new_lcid(ptr noundef %58, ptr noundef %59, ptr noundef %60)
  store ptr %61, ptr %14, align 8, !tbaa !20
  %62 = icmp eq ptr %61, null
  br i1 %62, label %63, label %64

63:                                               ; preds = %57
  store i32 0, ptr %6, align 4
  store i32 1, ptr %16, align 4
  br label %90

64:                                               ; preds = %57
  %65 = load ptr, ptr %12, align 8, !tbaa !27
  %66 = getelementptr inbounds nuw %struct.quic_lcidm_conn_st, ptr %65, i32 0, i32 4
  %67 = load i64, ptr %66, align 8, !tbaa !45
  %68 = load ptr, ptr %14, align 8, !tbaa !20
  %69 = getelementptr inbounds nuw %struct.quic_lcid_st, ptr %68, i32 0, i32 1
  store i64 %67, ptr %69, align 8, !tbaa !38
  %70 = load i32, ptr %9, align 4, !tbaa !42
  %71 = load ptr, ptr %14, align 8, !tbaa !20
  %72 = getelementptr inbounds nuw %struct.quic_lcid_st, ptr %71, i32 0, i32 3
  %73 = trunc i32 %70 to i8
  %74 = load i8, ptr %72, align 8
  %75 = and i8 %73, 3
  %76 = and i8 %74, -4
  %77 = or i8 %76, %75
  store i8 %77, ptr %72, align 8
  %78 = load ptr, ptr %11, align 8, !tbaa !43
  %79 = icmp ne ptr %78, null
  br i1 %79, label %80, label %85

80:                                               ; preds = %64
  %81 = load ptr, ptr %14, align 8, !tbaa !20
  %82 = getelementptr inbounds nuw %struct.quic_lcid_st, ptr %81, i32 0, i32 1
  %83 = load i64, ptr %82, align 8, !tbaa !38
  %84 = load ptr, ptr %11, align 8, !tbaa !43
  store i64 %83, ptr %84, align 8, !tbaa !8
  br label %85

85:                                               ; preds = %80, %64
  %86 = load ptr, ptr %12, align 8, !tbaa !27
  %87 = getelementptr inbounds nuw %struct.quic_lcidm_conn_st, ptr %86, i32 0, i32 4
  %88 = load i64, ptr %87, align 8, !tbaa !45
  %89 = add i64 %88, 1
  store i64 %89, ptr %87, align 8, !tbaa !45
  store i32 1, ptr %6, align 4
  store i32 1, ptr %16, align 4
  br label %90

90:                                               ; preds = %85, %63, %47, %41, %35, %21
  call void @llvm.lifetime.end.p0(i64 8, ptr %15) #7
  call void @llvm.lifetime.end.p0(i64 8, ptr %14) #7
  call void @llvm.lifetime.end.p0(i64 48, ptr %13) #7
  call void @llvm.lifetime.end.p0(i64 8, ptr %12) #7
  %91 = load i32, ptr %6, align 4
  ret i32 %91
}