; Function Attrs: nounwind uwtable
define internal fastcc range(i32 0, 2) i32 @lcidm_generate(ptr noundef readonly captures(none) %0, ptr noundef %1, i32 noundef range(i32 1, 3) %2, ptr noundef %3, ptr noundef writeonly captures(address_is_null) %4) unnamed_addr #0 {
  %6 = alloca %struct.quic_lcid_st, align 8
  call void @llvm.lifetime.start.p0(i64 48, ptr nonnull %6) #11
  %7 = tail call fastcc ptr @lcidm_upsert_conn(ptr noundef %0, ptr noundef %1)
  %8 = icmp eq ptr %7, null
  br i1 %8, label %.loopexit, label %9

9:                                                ; preds = %5
  %10 = icmp eq i32 %2, 1
  %11 = getelementptr inbounds nuw i8, ptr %7, i64 32
  %12 = load i64, ptr %11, align 8, !tbaa !33
  br i1 %10, label %13, label %14

13:                                               ; preds = %9
  %.not = icmp eq i64 %12, 0
  br i1 %.not, label %.preheader, label %.loopexit

14:                                               ; preds = %9
  %15 = icmp ugt i64 %12, 4611686018427387903
  br i1 %15, label %.loopexit, label %.preheader

.preheader:                                       ; preds = %13, %14
  %16 = getelementptr inbounds nuw i8, ptr %7, i64 32
  %17 = getelementptr i8, ptr %0, i64 24
  %18 = getelementptr inbounds nuw i8, ptr %0, i64 8
  br label %19

19:                                               ; preds = %.preheader, %23
  %.0 = phi i64 [ %20, %23 ], [ 0, %.preheader ]
  %20 = add nuw nsw i64 %.0, 1
  %exitcond = icmp eq i64 %.0, 8
  br i1 %exitcond, label %.loopexit, label %21

21:                                               ; preds = %19
  %.val = load ptr, ptr %0, align 8, !tbaa !13
  %.val28 = load i64, ptr %17, align 8, !tbaa !14
  %22 = call i32 @ossl_quic_gen_rand_conn_id(ptr noundef %.val, i64 noundef %.val28, ptr noundef %3) #11
  %.not25 = icmp eq i32 %22, 0
  br i1 %.not25, label %.loopexit, label %23

23:                                               ; preds = %21
  call void @llvm.memcpy.p0.p0.i64(ptr noundef nonnull align 8 dereferenceable(21) %6, ptr noundef nonnull align 1 dereferenceable(21) %3, i64 21, i1 false), !tbaa.struct !29
  %24 = load ptr, ptr %18, align 8, !tbaa !3
  %25 = call ptr @OPENSSL_LH_retrieve(ptr noundef %24, ptr noundef nonnull %6) #11
  %.not26 = icmp eq ptr %25, null
  br i1 %.not26, label %26, label %19, !llvm.loop !34

26:                                               ; preds = %23
  %27 = call fastcc ptr @lcidm_conn_new_lcid(ptr noundef nonnull %0, ptr noundef %7, ptr noundef nonnull %3)
  %28 = icmp eq ptr %27, null
  br i1 %28, label %.loopexit, label %29

29:                                               ; preds = %26
  %30 = load i64, ptr %16, align 8, !tbaa !33
  %31 = getelementptr inbounds nuw i8, ptr %27, i64 24
  store i64 %30, ptr %31, align 8, !tbaa !30
  %32 = getelementptr inbounds nuw i8, ptr %27, i64 40
  %33 = trunc nuw nsw i32 %2 to i8
  %34 = load i8, ptr %32, align 8
  %35 = and i8 %34, -4
  %36 = or disjoint i8 %35, %33
  store i8 %36, ptr %32, align 8
  %.not27 = icmp eq ptr %4, null
  br i1 %.not27, label %38, label %37

37:                                               ; preds = %29
  store i64 %30, ptr %4, align 8, !tbaa !35
  br label %38

38:                                               ; preds = %37, %29
  %39 = load i64, ptr %16, align 8, !tbaa !33
  %40 = add i64 %39, 1
  store i64 %40, ptr %16, align 8, !tbaa !33
  br label %.loopexit

.loopexit:                                        ; preds = %21, %19, %26, %13, %14, %5, %38
  %.021 = phi i32 [ 1, %38 ], [ 0, %5 ], [ 0, %14 ], [ 0, %13 ], [ 0, %26 ], [ 0, %19 ], [ 0, %21 ]
  call void @llvm.lifetime.end.p0(i64 48, ptr nonnull %6) #11
  ret i32 %.021
}